#include <math.h>
#include <stdio.h>
#include <stdlib.h>
#include <string.h>
#include <iostream>
using namespace std;


int n , k ;  //????

int f( int a , int m )
{
	int b ;
	b = a ;
	//cout << n << b << k << endl ;
	if( b % (n-1) != 0 ) return 0;
	//cout << b << n-1 << endl ;
	b = b /( n-1) * n + k ;
	//cout << b << endl ;
	if( m == n ) return b ;
	return f( b , m+1 ) ;

}

int main()
{
	cin >> n >> k ;
	int sum ;
	for( int a = n + k ; a > 0 ; a += n )//????????break
	{
		//cout << a << endl ;
		sum = f( a , 2 ) ; //?????
		if( sum == 0 ) continue ;  //??????
		break ;
	}
	cout << sum ;
}
